target datalayout = "e-m:e-p270:32:32-p271:32:32-p272:64:64-i64:64-i128:128-f80:128-n8:16:32:64-S128"
target triple = "x86_64-pc-linux-gnu"

%struct.RelationData = type { %struct.RelFileLocator, ptr, i32, i32, i8, i8, i8, i8, i8, i32, i32, i32, i32, ptr, ptr, i32, %struct.LockInfoData, ptr, ptr, ptr, ptr, ptr, i8, ptr, ptr, ptr, ptr, ptr, ptr, i32, ptr, i8, ptr, ptr, i32, i8, i32, ptr, i8, ptr, ptr, ptr, ptr, ptr, ptr, ptr, i32, ptr, ptr, ptr, ptr, ptr, ptr, ptr, ptr, ptr, ptr, ptr, ptr, ptr, ptr, ptr, ptr, ptr, ptr, ptr, i32, i8, ptr }
%struct.RelFileLocator = type { i32, i32, i32 }
%struct.LockInfoData = type { %struct.LockRelId }
%struct.LockRelId = type { i32, i32 }
%struct.ItemPointerData = type { %struct.BlockIdData, i16 }
%struct.BlockIdData = type { i16, i16 }
%struct.BTScanOpaqueData = type { i8, i32, ptr, i32, i8, i8, i8, ptr, ptr, ptr, ptr, i32, ptr, ptr, i32, %struct.BTScanPosData, %struct.BTScanPosData }
%struct.BTScanPosData = type { i32, i32, i32, i32, i64, i32, i32, i8, i8, i32, i32, i32, [1358 x %struct.BTScanPosItem] }
%struct.BTScanPosItem = type { %struct.ItemPointerData, i16, i16 }
%struct.IndexScanDescData = type { ptr, ptr, ptr, i32, i32, ptr, ptr, i8, i8, i8, i8, i8, ptr, ptr, ptr, ptr, ptr, %struct.ItemPointerData, i8, ptr, i8, ptr, ptr, i8, ptr }

; Function Attrs: nounwind uwtable
define dso_local ptr @btbeginscan(ptr noundef %0, i32 noundef %1, i32 noundef %2) #0 {
  %4 = alloca ptr, align 8
  %5 = alloca i32, align 4
  %6 = alloca i32, align 4
  %7 = alloca ptr, align 8
  %8 = alloca ptr, align 8
  store ptr %0, ptr %4, align 8
  store i32 %1, ptr %5, align 4
  store i32 %2, ptr %6, align 4
  call void @llvm.lifetime.start.p0(i64 8, ptr %7) #8
  call void @llvm.lifetime.start.p0(i64 8, ptr %8) #8
  %9 = load ptr, ptr %4, align 8
  %10 = load i32, ptr %5, align 4
  %11 = load i32, ptr %6, align 4
  %12 = call ptr @RelationGetIndexScan(ptr noundef %9, i32 noundef %10, i32 noundef %11)
  store ptr %12, ptr %7, align 8
  %13 = call ptr @palloc(i64 noundef 27352)
  store ptr %13, ptr %8, align 8
  br label %14

14:                                               ; preds = %3
  %15 = load ptr, ptr %8, align 8
  %16 = getelementptr inbounds nuw %struct.BTScanOpaqueData, ptr %15, i32 0, i32 15
  %17 = getelementptr inbounds nuw %struct.BTScanPosData, ptr %16, i32 0, i32 0
  store i32 0, ptr %17, align 8
  %18 = load ptr, ptr %8, align 8
  %19 = getelementptr inbounds nuw %struct.BTScanOpaqueData, ptr %18, i32 0, i32 15
  %20 = getelementptr inbounds nuw %struct.BTScanPosData, ptr %19, i32 0, i32 1
  store i32 -1, ptr %20, align 4
  br label %21

21:                                               ; preds = %14
  br label %22

22:                                               ; preds = %21
  br label %23

23:                                               ; preds = %22
  %24 = load ptr, ptr %8, align 8
  %25 = getelementptr inbounds nuw %struct.BTScanOpaqueData, ptr %24, i32 0, i32 16
  %26 = getelementptr inbounds nuw %struct.BTScanPosData, ptr %25, i32 0, i32 0
  store i32 0, ptr %26, align 8
  %27 = load ptr, ptr %8, align 8
  %28 = getelementptr inbounds nuw %struct.BTScanOpaqueData, ptr %27, i32 0, i32 16
  %29 = getelementptr inbounds nuw %struct.BTScanPosData, ptr %28, i32 0, i32 1
  store i32 -1, ptr %29, align 4
  br label %30

30:                                               ; preds = %23
  br label %31

31:                                               ; preds = %30
  %32 = load ptr, ptr %7, align 8
  %33 = getelementptr inbounds nuw %struct.IndexScanDescData, ptr %32, i32 0, i32 3
  %34 = load i32, ptr %33, align 8
  %35 = icmp sgt i32 %34, 0
  br i1 %35, label %36, label %45

36:                                               ; preds = %31
  %37 = load ptr, ptr %7, align 8
  %38 = getelementptr inbounds nuw %struct.IndexScanDescData, ptr %37, i32 0, i32 3
  %39 = load i32, ptr %38, align 8
  %40 = sext i32 %39 to i64
  %41 = mul i64 %40, 72
  %42 = call ptr @palloc(i64 noundef %41)
  %43 = load ptr, ptr %8, align 8
  %44 = getelementptr inbounds nuw %struct.BTScanOpaqueData, ptr %43, i32 0, i32 2
  store ptr %42, ptr %44, align 8
  br label %48

45:                                               ; preds = %31
  %46 = load ptr, ptr %8, align 8
  %47 = getelementptr inbounds nuw %struct.BTScanOpaqueData, ptr %46, i32 0, i32 2
  store ptr null, ptr %47, align 8
  br label %48

48:                                               ; preds = %45, %36
  %49 = load ptr, ptr %8, align 8
  %50 = getelementptr inbounds nuw %struct.BTScanOpaqueData, ptr %49, i32 0, i32 4
  store i8 0, ptr %50, align 4
  %51 = load ptr, ptr %8, align 8
  %52 = getelementptr inbounds nuw %struct.BTScanOpaqueData, ptr %51, i32 0, i32 5
  store i8 0, ptr %52, align 1
  %53 = load ptr, ptr %8, align 8
  %54 = getelementptr inbounds nuw %struct.BTScanOpaqueData, ptr %53, i32 0, i32 6
  store i8 0, ptr %54, align 2
  %55 = load ptr, ptr %8, align 8
  %56 = getelementptr inbounds nuw %struct.BTScanOpaqueData, ptr %55, i32 0, i32 7
  store ptr null, ptr %56, align 8
  %57 = load ptr, ptr %8, align 8
  %58 = getelementptr inbounds nuw %struct.BTScanOpaqueData, ptr %57, i32 0, i32 8
  store ptr null, ptr %58, align 8
  %59 = load ptr, ptr %8, align 8
  %60 = getelementptr inbounds nuw %struct.BTScanOpaqueData, ptr %59, i32 0, i32 9
  store ptr null, ptr %60, align 8
  %61 = load ptr, ptr %8, align 8
  %62 = getelementptr inbounds nuw %struct.BTScanOpaqueData, ptr %61, i32 0, i32 10
  store ptr null, ptr %62, align 8
  %63 = load ptr, ptr %8, align 8
  %64 = getelementptr inbounds nuw %struct.BTScanOpaqueData, ptr %63, i32 0, i32 11
  store i32 0, ptr %64, align 8
  %65 = load ptr, ptr %8, align 8
  %66 = getelementptr inbounds nuw %struct.BTScanOpaqueData, ptr %65, i32 0, i32 13
  store ptr null, ptr %66, align 8
  %67 = load ptr, ptr %8, align 8
  %68 = getelementptr inbounds nuw %struct.BTScanOpaqueData, ptr %67, i32 0, i32 12
  store ptr null, ptr %68, align 8
  %69 = load ptr, ptr %4, align 8
  %70 = getelementptr inbounds nuw %struct.RelationData, ptr %69, i32 0, i32 14
  %71 = load ptr, ptr %70, align 8
  %72 = load ptr, ptr %7, align 8
  %73 = getelementptr inbounds nuw %struct.IndexScanDescData, ptr %72, i32 0, i32 14
  store ptr %71, ptr %73, align 8
  %74 = load ptr, ptr %8, align 8
  %75 = load ptr, ptr %7, align 8
  %76 = getelementptr inbounds nuw %struct.IndexScanDescData, ptr %75, i32 0, i32 12
  store ptr %74, ptr %76, align 8
  %77 = load ptr, ptr %7, align 8
  call void @llvm.lifetime.end.p0(i64 8, ptr %8) #8
  call void @llvm.lifetime.end.p0(i64 8, ptr %7) #8
  ret ptr %77
}