; Function Attrs: nounwind uwtable
define dso_local ptr @btbeginscan(ptr noundef %0, i32 noundef %1, i32 noundef %2) #0 {
  %4 = tail call ptr @RelationGetIndexScan(ptr noundef %0, i32 noundef %1, i32 noundef %2) #8
  %5 = tail call ptr @palloc(i64 noundef 27352) #8
  %6 = getelementptr inbounds nuw i8, ptr %5, i64 88
  store i32 0, ptr %6, align 8
  %7 = getelementptr inbounds nuw i8, ptr %5, i64 92
  store i32 -1, ptr %7, align 4
  %8 = getelementptr inbounds nuw i8, ptr %5, i64 13720
  store i32 0, ptr %8, align 8
  %9 = getelementptr inbounds nuw i8, ptr %5, i64 13724
  store i32 -1, ptr %9, align 4
  %10 = getelementptr inbounds nuw i8, ptr %4, i64 24
  %11 = load i32, ptr %10, align 8
  %12 = icmp sgt i32 %11, 0
  br i1 %12, label %13, label %17

13:                                               ; preds = %3
  %14 = zext nneg i32 %11 to i64
  %15 = mul nuw nsw i64 %14, 72
  %16 = tail call ptr @palloc(i64 noundef %15) #8
  br label %17

17:                                               ; preds = %3, %13
  %.sink = phi ptr [ %16, %13 ], [ null, %3 ]
  %18 = getelementptr inbounds nuw i8, ptr %5, i64 8
  store ptr %.sink, ptr %18, align 8
  %19 = getelementptr inbounds nuw i8, ptr %5, i64 20
  store i8 0, ptr %19, align 4
  %20 = getelementptr inbounds nuw i8, ptr %5, i64 21
  store i8 0, ptr %20, align 1
  %21 = getelementptr inbounds nuw i8, ptr %5, i64 22
  store i8 0, ptr %21, align 2
  %22 = getelementptr inbounds nuw i8, ptr %5, i64 24
  %23 = getelementptr inbounds nuw i8, ptr %5, i64 64
  %24 = getelementptr inbounds nuw i8, ptr %0, i64 64
  tail call void @llvm.memset.p0.i64(ptr noundef nonnull align 8 dereferenceable(36) %22, i8 0, i64 36, i1 false)
  tail call void @llvm.memset.p0.i64(ptr noundef nonnull align 8 dereferenceable(16) %23, i8 0, i64 16, i1 false)
  %25 = load ptr, ptr %24, align 8
  %26 = getelementptr inbounds nuw i8, ptr %4, i64 72
  store ptr %25, ptr %26, align 8
  %27 = getelementptr inbounds nuw i8, ptr %4, i64 56
  store ptr %5, ptr %27, align 8
  ret ptr %4
}